; Function Attrs: mustprogress uwtable
define noundef zeroext i1 @_ZNK3gmx26AnalysisNeighborhoodSearch8isWithinERKNS_29AnalysisNeighborhoodPositionsE(ptr noundef nonnull readonly align 8 captures(none) dereferenceable(16) %0, ptr noundef nonnull readonly align 8 captures(none) dereferenceable(32) %1) local_unnamed_addr #10 align 2 {
  %3 = alloca %"class.gmx::internal::AnalysisNeighborhoodPairSearchImpl", align 8
  %4 = load ptr, ptr %0, align 8, !tbaa !187
  %.not = icmp eq ptr %4, null
  br i1 %.not, label %5, label %6

5:                                                ; preds = %2
  tail call void @_ZN3gmx8internal13assertHandlerEPKcS2_S2_S2_i(ptr noundef nonnull @.str.19, ptr noundef nonnull @.str.20, ptr noundef nonnull @"__PRETTY_FUNCTION__._ZZNK3gmx26AnalysisNeighborhoodSearch8isWithinERKNS_29AnalysisNeighborhoodPositionsEENK3$_0clEv", ptr noundef nonnull @.str.4, i32 noundef 1365) #40
  unreachable

6:                                                ; preds = %2
  call void @llvm.lifetime.start.p0(i64 144, ptr nonnull %3) #36
  store ptr %4, ptr %3, align 8, !tbaa !71
  %7 = getelementptr inbounds nuw i8, ptr %3, i64 8
  %8 = getelementptr inbounds nuw i8, ptr %3, i64 12
  %9 = getelementptr inbounds nuw i8, ptr %3, i64 60
  store float 0.000000e+00, ptr %9, align 4, !tbaa !77
  %10 = getelementptr inbounds nuw i8, ptr %3, i64 64
  store float 0.000000e+00, ptr %10, align 8, !tbaa !77
  %11 = getelementptr inbounds nuw i8, ptr %3, i64 68
  store float 0.000000e+00, ptr %11, align 4, !tbaa !77
  %12 = getelementptr inbounds nuw i8, ptr %3, i64 96
  store float 0.000000e+00, ptr %12, align 8, !tbaa !77
  %13 = getelementptr inbounds nuw i8, ptr %3, i64 100
  store float 0.000000e+00, ptr %13, align 4, !tbaa !77
  %14 = getelementptr inbounds nuw i8, ptr %3, i64 104
  store float 0.000000e+00, ptr %14, align 8, !tbaa !77
  %15 = getelementptr inbounds nuw i8, ptr %3, i64 112
  %16 = getelementptr inbounds nuw i8, ptr %3, i64 56
  %17 = getelementptr inbounds nuw i8, ptr %3, i64 40
  call void @llvm.memset.p0.i64(ptr noundef nonnull align 8 dereferenceable(16) %17, i8 0, i64 16, i1 false)
  call void @llvm.memset.p0.i64(ptr noundef nonnull align 8 dereferenceable(24) %15, i8 0, i64 24, i1 false)
  store i32 -1, ptr %16, align 8, !tbaa !78
  %18 = getelementptr inbounds nuw i8, ptr %3, i64 108
  store i32 -1, ptr %18, align 4, !tbaa !79
  %19 = getelementptr inbounds nuw i8, ptr %3, i64 72
  store i32 -1, ptr %19, align 8, !tbaa !80
  %20 = getelementptr inbounds nuw i8, ptr %3, i64 76
  %21 = getelementptr inbounds nuw i8, ptr %3, i64 136
  call void @llvm.memset.p0.i64(ptr noundef nonnull align 4 dereferenceable(20) %20, i8 0, i64 20, i1 false)
  store i32 -1, ptr %21, align 8, !tbaa !81
  store i8 0, ptr %7, align 8, !tbaa !73
  %22 = load i32, ptr %1, align 8, !tbaa !145
  store i32 %22, ptr %8, align 4, !tbaa !180
  %23 = getelementptr inbounds nuw i8, ptr %1, i64 8
  %24 = load ptr, ptr %23, align 8, !tbaa !148
  %25 = getelementptr inbounds nuw i8, ptr %3, i64 16
  store ptr %24, ptr %25, align 8, !tbaa !90
  %26 = getelementptr inbounds nuw i8, ptr %1, i64 16
  %27 = load ptr, ptr %26, align 8, !tbaa !153
  %28 = getelementptr inbounds nuw i8, ptr %3, i64 24
  store ptr %27, ptr %28, align 8, !tbaa !96
  %29 = getelementptr inbounds nuw i8, ptr %1, i64 24
  %30 = load ptr, ptr %29, align 8, !tbaa !146
  %31 = getelementptr inbounds nuw i8, ptr %3, i64 32
  store ptr %30, ptr %31, align 8, !tbaa !85
  %32 = getelementptr inbounds nuw i8, ptr %4, i64 48
  %33 = load ptr, ptr %32, align 8, !tbaa !95
  %34 = icmp ne ptr %33, null
  %.not.i = icmp eq ptr %27, null
  %or.cond.i = select i1 %34, i1 %.not.i, i1 false
  br i1 %or.cond.i, label %35, label %36

35:                                               ; preds = %6
  tail call void @_ZN3gmx8internal13assertHandlerEPKcS2_S2_S2_i(ptr noundef nonnull @.str.11, ptr noundef nonnull @.str.12, ptr noundef nonnull @"__PRETTY_FUNCTION__._ZZN3gmx8internal34AnalysisNeighborhoodPairSearchImpl11startSearchERKNS_29AnalysisNeighborhoodPositionsEENK3$_0clEv", ptr noundef nonnull @.str.4, i32 noundef 1048) #40
  unreachable

36:                                               ; preds = %6
  %37 = getelementptr inbounds nuw i8, ptr %1, i64 4
  %38 = load i32, ptr %37, align 4, !tbaa !133
  %39 = icmp slt i32 %38, 0
  br i1 %39, label %_ZN3gmx8internal34AnalysisNeighborhoodPairSearchImpl11startSearchERKNS_29AnalysisNeighborhoodPositionsE.exit, label %40

40:                                               ; preds = %36
  %41 = add nuw nsw i32 %38, 1
  store i32 %41, ptr %8, align 4, !tbaa !180
  br label %_ZN3gmx8internal34AnalysisNeighborhoodPairSearchImpl11startSearchERKNS_29AnalysisNeighborhoodPositionsE.exit

_ZN3gmx8internal34AnalysisNeighborhoodPairSearchImpl11startSearchERKNS_29AnalysisNeighborhoodPositionsE.exit: ; preds = %36, %40
  %.sink.i = phi i32 [ %38, %40 ], [ 0, %36 ]
  call void @_ZN3gmx8internal34AnalysisNeighborhoodPairSearchImpl5resetEi(ptr noundef nonnull align 8 dereferenceable(140) %3, i32 noundef %.sink.i)
  %42 = call noundef zeroext i1 @_ZN3gmx8internal34AnalysisNeighborhoodPairSearchImpl10searchNextIPFbifPKfEEEbT_(ptr noundef nonnull align 8 dereferenceable(140) %3, ptr noundef nonnull @_ZN3gmx12_GLOBAL__N_112withinActionEifPKf)
  call void @llvm.lifetime.end.p0(i64 144, ptr nonnull %3) #36
  ret i1 %42
}